; Function Attrs: nounwind uwtable
define ptr @l_Lean_IR_EmitC_emitFnDecl___boxed(ptr noundef %0, ptr noundef %1, ptr noundef %2, ptr noundef %3) local_unnamed_addr #0 {
  %5 = ptrtoint ptr %1 to i64
  %6 = lshr i64 %5, 1
  %7 = trunc i64 %6 to i8
  %8 = and i64 %5, 1
  %.not = icmp eq i64 %8, 0
  br i1 %.not, label %9, label %lean_dec.exit7

9:                                                ; preds = %4
  %10 = load i32, ptr %1, align 4, !tbaa !8
  %11 = icmp sgt i32 %10, 1
  br i1 %11, label %12, label %14, !prof !11

12:                                               ; preds = %9
  %13 = add nsw i32 %10, -1
  store i32 %13, ptr %1, align 4, !tbaa !8
  br label %lean_dec.exit7

14:                                               ; preds = %9
  %.not.i = icmp eq i32 %10, 0
  br i1 %.not.i, label %lean_dec.exit7, label %15

15:                                               ; preds = %14
  tail call void @lean_dec_ref_cold(ptr noundef nonnull %1) #5
  br label %lean_dec.exit7

lean_dec.exit7:                                   ; preds = %15, %14, %12, %4
  %16 = tail call ptr @l_Lean_IR_EmitC_emitFnDecl(ptr noundef %0, i8 noundef zeroext %7, ptr noundef %2, ptr noundef %3)
  %17 = ptrtoint ptr %0 to i64
  %18 = and i64 %17, 1
  %.not10 = icmp eq i64 %18, 0
  br i1 %.not10, label %19, label %lean_dec.exit

19:                                               ; preds = %lean_dec.exit7
  %20 = load i32, ptr %0, align 4, !tbaa !8
  %21 = icmp sgt i32 %20, 1
  br i1 %21, label %22, label %24, !prof !11

22:                                               ; preds = %19
  %23 = add nsw i32 %20, -1
  store i32 %23, ptr %0, align 4, !tbaa !8
  br label %lean_dec.exit

24:                                               ; preds = %19
  %.not.i8 = icmp eq i32 %20, 0
  br i1 %.not.i8, label %lean_dec.exit, label %25

25:                                               ; preds = %24
  tail call void @lean_dec_ref_cold(ptr noundef nonnull %0) #5
  br label %lean_dec.exit

lean_dec.exit:                                    ; preds = %25, %24, %22, %lean_dec.exit7
  ret ptr %16
}